target datalayout = "e-m:e-p270:32:32-p271:32:32-p272:64:64-i64:64-i128:128-f80:128-n8:16:32:64-S128"
target triple = "x86_64-pc-linux-gnu"

; Function Attrs: nounwind uwtable
define internal double @a_weighting(ptr noundef %0, double noundef %1) #1 {
  %3 = alloca ptr, align 8
  %4 = alloca double, align 8
  %5 = alloca double, align 8
  store ptr %0, ptr %3, align 8, !tbaa !159
  store double %1, ptr %4, align 8, !tbaa !94
  call void @llvm.lifetime.start.p0(i64 8, ptr %5) #12
  %6 = load double, ptr %4, align 8, !tbaa !94
  %7 = load double, ptr %4, align 8, !tbaa !94
  %8 = fmul nsz double %6, %7
  %9 = load double, ptr %4, align 8, !tbaa !94
  %10 = fmul nsz double %8, %9
  %11 = load double, ptr %4, align 8, !tbaa !94
  %12 = fmul nsz double %10, %11
  %13 = fmul nsz double 1.488400e+08, %12
  store double %13, ptr %5, align 8, !tbaa !94
  %14 = load double, ptr %4, align 8, !tbaa !94
  %15 = load double, ptr %4, align 8, !tbaa !94
  %16 = call nsz double @llvm.fmuladd.f64(double %14, double %15, double 0x407A85C28F5C28F7)
  %17 = load double, ptr %4, align 8, !tbaa !94
  %18 = load double, ptr %4, align 8, !tbaa !94
  %19 = call nsz double @llvm.fmuladd.f64(double %17, double %18, double 1.488400e+08)
  %20 = fmul nsz double %16, %19
  %21 = load double, ptr %4, align 8, !tbaa !94
  %22 = load double, ptr %4, align 8, !tbaa !94
  %23 = call nsz double @llvm.fmuladd.f64(double %21, double %22, double 0x40C6A7A51EB851EC)
  %24 = load double, ptr %4, align 8, !tbaa !94
  %25 = load double, ptr %4, align 8, !tbaa !94
  %26 = call nsz double @llvm.fmuladd.f64(double %24, double %25, double 0x41209DE0D1EB851E)
  %27 = fmul nsz double %23, %26
  %28 = call nsz double @llvm.sqrt.f64(double %27)
  %29 = fmul nsz double %20, %28
  %30 = load double, ptr %5, align 8, !tbaa !94
  %31 = fdiv nsz double %30, %29
  store double %31, ptr %5, align 8, !tbaa !94
  %32 = load double, ptr %5, align 8, !tbaa !94
  call void @llvm.lifetime.end.p0(i64 8, ptr %5) #12
  ret double %32
}