; Function Attrs: mustprogress nofree norecurse nosync nounwind willreturn memory(none) uwtable
define internal noundef double @a_weighting(ptr readnone captures(none) %0, double noundef %1) #10 {
  %3 = fmul nsz double %1, %1
  %4 = fmul nsz double %1, %3
  %5 = fmul nsz double %1, %4
  %6 = fmul nsz double %5, 1.488400e+08
  %7 = tail call nsz double @llvm.fmuladd.f64(double %1, double %1, double 0x407A85C28F5C28F7)
  %8 = tail call nsz double @llvm.fmuladd.f64(double %1, double %1, double 1.488400e+08)
  %9 = fmul nsz double %7, %8
  %10 = tail call nsz double @llvm.fmuladd.f64(double %1, double %1, double 0x40C6A7A51EB851EC)
  %11 = tail call nsz double @llvm.fmuladd.f64(double %1, double %1, double 0x41209DE0D1EB851E)
  %12 = fmul nsz double %10, %11
  %13 = tail call nsz double @llvm.sqrt.f64(double %12)
  %14 = fmul nsz double %9, %13
  %15 = fdiv nsz double %6, %14
  ret double %15
}